target datalayout = "e-m:e-p270:32:32-p271:32:32-p272:64:64-i64:64-i128:128-f80:128-n8:16:32:64-S128"
target triple = "x86_64-pc-linux-gnu"

; Function Attrs: mustprogress nounwind uwtable
define internal noundef zeroext i1 @_ZN12_GLOBAL__N_121string_compare_nocaseERKNSt7__cxx1112basic_stringIcSt11char_traitsIcESaIcEEES7_(ptr noundef nonnull align 8 dereferenceable(32) %0, ptr noundef nonnull align 8 dereferenceable(32) %1) #5 {
  %3 = alloca i1, align 1
  %4 = alloca ptr, align 8
  %5 = alloca ptr, align 8
  %6 = alloca i64, align 8
  %7 = alloca i8, align 1
  %8 = alloca i8, align 1
  store ptr %0, ptr %4, align 8
  store ptr %1, ptr %5, align 8
  %9 = load ptr, ptr %4, align 8
  %10 = call noundef i64 @_ZNKSt7__cxx1112basic_stringIcSt11char_traitsIcESaIcEE4sizeEv(ptr noundef nonnull align 8 dereferenceable(32) %9) #3
  %11 = load ptr, ptr %5, align 8
  %12 = call noundef i64 @_ZNKSt7__cxx1112basic_stringIcSt11char_traitsIcESaIcEE4sizeEv(ptr noundef nonnull align 8 dereferenceable(32) %11) #3
  %13 = icmp ne i64 %10, %12
  br i1 %13, label %14, label %15

14:                                               ; preds = %2
  store i1 false, ptr %3, align 1
  br label %67

15:                                               ; preds = %2
  store i64 0, ptr %6, align 8
  br label %16

16:                                               ; preds = %63, %15
  %17 = load i64, ptr %6, align 8
  %18 = load ptr, ptr %4, align 8
  %19 = call noundef i64 @_ZNKSt7__cxx1112basic_stringIcSt11char_traitsIcESaIcEE4sizeEv(ptr noundef nonnull align 8 dereferenceable(32) %18) #3
  %20 = icmp ult i64 %17, %19
  br i1 %20, label %21, label %66

21:                                               ; preds = %16
  %22 = load ptr, ptr %4, align 8
  %23 = load i64, ptr %6, align 8
  %24 = call noundef nonnull align 1 dereferenceable(1) ptr @_ZNKSt7__cxx1112basic_stringIcSt11char_traitsIcESaIcEEixEm(ptr noundef nonnull align 8 dereferenceable(32) %22, i64 noundef %23) #3
  %25 = load i8, ptr %24, align 1
  store i8 %25, ptr %7, align 1
  %26 = load ptr, ptr %5, align 8
  %27 = load i64, ptr %6, align 8
  %28 = call noundef nonnull align 1 dereferenceable(1) ptr @_ZNKSt7__cxx1112basic_stringIcSt11char_traitsIcESaIcEEixEm(ptr noundef nonnull align 8 dereferenceable(32) %26, i64 noundef %27) #3
  %29 = load i8, ptr %28, align 1
  store i8 %29, ptr %8, align 1
  %30 = load i8, ptr %7, align 1
  %31 = sext i8 %30 to i32
  %32 = icmp sle i32 97, %31
  br i1 %32, label %33, label %42

33:                                               ; preds = %21
  %34 = load i8, ptr %7, align 1
  %35 = sext i8 %34 to i32
  %36 = icmp sle i32 %35, 122
  br i1 %36, label %37, label %42

37:                                               ; preds = %33
  %38 = load i8, ptr %7, align 1
  %39 = sext i8 %38 to i32
  %40 = sub nsw i32 %39, 32
  %41 = trunc i32 %40 to i8
  store i8 %41, ptr %7, align 1
  br label %42

42:                                               ; preds = %37, %33, %21
  %43 = load i8, ptr %8, align 1
  %44 = sext i8 %43 to i32
  %45 = icmp sle i32 97, %44
  br i1 %45, label %46, label %55

46:                                               ; preds = %42
  %47 = load i8, ptr %8, align 1
  %48 = sext i8 %47 to i32
  %49 = icmp sle i32 %48, 122
  br i1 %49, label %50, label %55

50:                                               ; preds = %46
  %51 = load i8, ptr %8, align 1
  %52 = sext i8 %51 to i32
  %53 = sub nsw i32 %52, 32
  %54 = trunc i32 %53 to i8
  store i8 %54, ptr %8, align 1
  br label %55

55:                                               ; preds = %50, %46, %42
  %56 = load i8, ptr %7, align 1
  %57 = sext i8 %56 to i32
  %58 = load i8, ptr %8, align 1
  %59 = sext i8 %58 to i32
  %60 = icmp ne i32 %57, %59
  br i1 %60, label %61, label %62

61:                                               ; preds = %55
  store i1 false, ptr %3, align 1
  br label %67

62:                                               ; preds = %55
  br label %63

63:                                               ; preds = %62
  %64 = load i64, ptr %6, align 8
  %65 = add i64 %64, 1
  store i64 %65, ptr %6, align 8
  br label %16, !llvm.loop !9

66:                                               ; preds = %16
  store i1 true, ptr %3, align 1
  br label %67

67:                                               ; preds = %66, %61, %14
  %68 = load i1, ptr %3, align 1
  ret i1 %68
}