; Function Attrs: mustprogress nounwind uwtable
define internal fastcc noundef zeroext i1 @_ZN12_GLOBAL__N_121string_compare_nocaseERKNSt7__cxx1112basic_stringIcSt11char_traitsIcESaIcEEES7_(ptr noundef nonnull align 8 dereferenceable(32) %0, ptr noundef nonnull align 8 dereferenceable(32) %1) unnamed_addr #3 {
  %3 = tail call noundef i64 @_ZNKSt7__cxx1112basic_stringIcSt11char_traitsIcESaIcEE4sizeEv(ptr noundef nonnull align 8 dereferenceable(32) %0) #21
  %4 = tail call noundef i64 @_ZNKSt7__cxx1112basic_stringIcSt11char_traitsIcESaIcEE4sizeEv(ptr noundef nonnull align 8 dereferenceable(32) %1) #21
  %.not = icmp eq i64 %3, %4
  br i1 %.not, label %.preheader, label %.loopexit

.preheader:                                       ; preds = %2
  %5 = tail call noundef i64 @_ZNKSt7__cxx1112basic_stringIcSt11char_traitsIcESaIcEE4sizeEv(ptr noundef nonnull align 8 dereferenceable(32) %0) #21
  %.not31 = icmp eq i64 %5, 0
  br i1 %.not31, label %.loopexit, label %.lr.ph

6:                                                ; preds = %.lr.ph
  %7 = add nuw i64 %.02328, 1
  %8 = tail call noundef i64 @_ZNKSt7__cxx1112basic_stringIcSt11char_traitsIcESaIcEE4sizeEv(ptr noundef nonnull align 8 dereferenceable(32) %0) #21
  %9 = icmp ult i64 %7, %8
  br i1 %9, label %.lr.ph, label %.loopexit, !llvm.loop !42

.lr.ph:                                           ; preds = %.preheader, %6
  %.02328 = phi i64 [ %7, %6 ], [ 0, %.preheader ]
  %10 = tail call noundef nonnull align 1 dereferenceable(1) ptr @_ZNKSt7__cxx1112basic_stringIcSt11char_traitsIcESaIcEEixEm(ptr noundef nonnull align 8 dereferenceable(32) %0, i64 noundef %.02328) #21
  %11 = load i8, ptr %10, align 1
  %12 = tail call noundef nonnull align 1 dereferenceable(1) ptr @_ZNKSt7__cxx1112basic_stringIcSt11char_traitsIcESaIcEEixEm(ptr noundef nonnull align 8 dereferenceable(32) %1, i64 noundef %.02328) #21
  %13 = load i8, ptr %12, align 1
  %14 = add i8 %11, -97
  %or.cond = icmp ult i8 %14, 26
  %15 = add nsw i8 %11, -32
  %spec.select = select i1 %or.cond, i8 %15, i8 %11
  %16 = add i8 %13, -97
  %or.cond5 = icmp ult i8 %16, 26
  %17 = add nsw i8 %13, -32
  %.0 = select i1 %or.cond5, i8 %17, i8 %13
  %.not27 = icmp eq i8 %spec.select, %.0
  br i1 %.not27, label %6, label %.loopexit

.loopexit:                                        ; preds = %.lr.ph, %6, %.preheader, %2
  %.024 = phi i1 [ false, %2 ], [ true, %.preheader ], [ %.not27, %6 ], [ %.not27, %.lr.ph ]
  ret i1 %.024
}